target datalayout = "e-m:e-p270:32:32-p271:32:32-p272:64:64-i64:64-i128:128-f80:128-n8:16:32:64-S128"
target triple = "x86_64-pc-linux-gnu"

%struct.TLS1_PRF = type { ptr, ptr, ptr, ptr, i64, ptr, i64 }

@.str = private unnamed_addr constant [53 x i8] c"../openssl/providers/implementations/kdfs/tls1_prf.c\00", align 1

; Function Attrs: nounwind uwtable
define internal void @kdf_tls1_prf_reset(ptr noundef %0) #0 {
  %2 = alloca ptr, align 8
  %3 = alloca ptr, align 8
  %4 = alloca ptr, align 8
  store ptr %0, ptr %2, align 8, !tbaa !3
  call void @llvm.lifetime.start.p0(i64 8, ptr %3) #8
  %5 = load ptr, ptr %2, align 8, !tbaa !3
  store ptr %5, ptr %3, align 8, !tbaa !3
  call void @llvm.lifetime.start.p0(i64 8, ptr %4) #8
  %6 = load ptr, ptr %3, align 8, !tbaa !3
  %7 = getelementptr inbounds nuw %struct.TLS1_PRF, ptr %6, i32 0, i32 0
  %8 = load ptr, ptr %7, align 8, !tbaa !7
  store ptr %8, ptr %4, align 8, !tbaa !3
  %9 = load ptr, ptr %3, align 8, !tbaa !3
  %10 = getelementptr inbounds nuw %struct.TLS1_PRF, ptr %9, i32 0, i32 1
  %11 = load ptr, ptr %10, align 8, !tbaa !12
  call void @EVP_MAC_CTX_free(ptr noundef %11)
  %12 = load ptr, ptr %3, align 8, !tbaa !3
  %13 = getelementptr inbounds nuw %struct.TLS1_PRF, ptr %12, i32 0, i32 2
  %14 = load ptr, ptr %13, align 8, !tbaa !13
  call void @EVP_MAC_CTX_free(ptr noundef %14)
  %15 = load ptr, ptr %3, align 8, !tbaa !3
  %16 = getelementptr inbounds nuw %struct.TLS1_PRF, ptr %15, i32 0, i32 3
  %17 = load ptr, ptr %16, align 8, !tbaa !14
  %18 = load ptr, ptr %3, align 8, !tbaa !3
  %19 = getelementptr inbounds nuw %struct.TLS1_PRF, ptr %18, i32 0, i32 4
  %20 = load i64, ptr %19, align 8, !tbaa !15
  call void @CRYPTO_clear_free(ptr noundef %17, i64 noundef %20, ptr noundef @.str, i32 noundef 144)
  %21 = load ptr, ptr %3, align 8, !tbaa !3
  %22 = getelementptr inbounds nuw %struct.TLS1_PRF, ptr %21, i32 0, i32 5
  %23 = load ptr, ptr %22, align 8, !tbaa !16
  %24 = load ptr, ptr %3, align 8, !tbaa !3
  %25 = getelementptr inbounds nuw %struct.TLS1_PRF, ptr %24, i32 0, i32 6
  %26 = load i64, ptr %25, align 8, !tbaa !17
  call void @CRYPTO_clear_free(ptr noundef %23, i64 noundef %26, ptr noundef @.str, i32 noundef 145)
  %27 = load ptr, ptr %3, align 8, !tbaa !3
  call void @llvm.memset.p0.i64(ptr align 8 %27, i8 0, i64 56, i1 false)
  %28 = load ptr, ptr %4, align 8, !tbaa !3
  %29 = load ptr, ptr %3, align 8, !tbaa !3
  %30 = getelementptr inbounds nuw %struct.TLS1_PRF, ptr %29, i32 0, i32 0
  store ptr %28, ptr %30, align 8, !tbaa !7
  call void @llvm.lifetime.end.p0(i64 8, ptr %4) #8
  call void @llvm.lifetime.end.p0(i64 8, ptr %3) #8
  ret void
}

; Function Attrs: nounwind uwtable
define internal void @kdf_tls1_prf_free(ptr noundef %0) #0 {
  %2 = alloca ptr, align 8
  %3 = alloca ptr, align 8
  store ptr %0, ptr %2, align 8, !tbaa !3
  call void @llvm.lifetime.start.p0(i64 8, ptr %3) #8
  %4 = load ptr, ptr %2, align 8, !tbaa !3
  store ptr %4, ptr %3, align 8, !tbaa !3
  %5 = load ptr, ptr %3, align 8, !tbaa !3
  %6 = icmp ne ptr %5, null
  br i1 %6, label %7, label %10

7:                                                ; preds = %1
  %8 = load ptr, ptr %3, align 8, !tbaa !3
  call void @kdf_tls1_prf_reset(ptr noundef %8)
  %9 = load ptr, ptr %3, align 8, !tbaa !3
  call void @CRYPTO_free(ptr noundef %9, ptr noundef @.str, i32 noundef 133)
  br label %10

10:                                               ; preds = %7, %1
  call void @llvm.lifetime.end.p0(i64 8, ptr %3) #8
  ret void
}

; Function Attrs: nounwind uwtable
define internal ptr @kdf_tls1_prf_new(ptr noundef %0) #0 {
  %2 = alloca ptr, align 8
  %3 = alloca ptr, align 8
  %4 = alloca ptr, align 8
  %5 = alloca i32, align 4
  store ptr %0, ptr %3, align 8, !tbaa !3
  call void @llvm.lifetime.start.p0(i64 8, ptr %4) #8
  %6 = call i32 @ossl_prov_is_running()
  %7 = icmp ne i32 %6, 0
  br i1 %7, label %9, label %8

8:                                                ; preds = %1
  store ptr null, ptr %2, align 8
  store i32 1, ptr %5, align 4
  br label %18

9:                                                ; preds = %1
  %10 = call noalias ptr @CRYPTO_zalloc(i64 noundef 56, ptr noundef @.str, i32 noundef 120)
  store ptr %10, ptr %4, align 8, !tbaa !3
  %11 = icmp ne ptr %10, null
  br i1 %11, label %12, label %16

12:                                               ; preds = %9
  %13 = load ptr, ptr %3, align 8, !tbaa !3
  %14 = load ptr, ptr %4, align 8, !tbaa !3
  %15 = getelementptr inbounds nuw %struct.TLS1_PRF, ptr %14, i32 0, i32 0
  store ptr %13, ptr %15, align 8, !tbaa !7
  br label %16

16:                                               ; preds = %12, %9
  %17 = load ptr, ptr %4, align 8, !tbaa !3
  store ptr %17, ptr %2, align 8
  store i32 1, ptr %5, align 4
  br label %18

18:                                               ; preds = %16, %8
  call void @llvm.lifetime.end.p0(i64 8, ptr %4) #8
  %19 = load ptr, ptr %2, align 8
  ret ptr %19
}

; Function Attrs: nounwind uwtable
define internal ptr @kdf_tls1_prf_dup(ptr noundef %0) #0 {
  %2 = alloca ptr, align 8
  %3 = alloca ptr, align 8
  %4 = alloca ptr, align 8
  %5 = alloca ptr, align 8
  %6 = alloca i32, align 4
  store ptr %0, ptr %3, align 8, !tbaa !3
  call void @llvm.lifetime.start.p0(i64 8, ptr %4) #8
  %7 = load ptr, ptr %3, align 8, !tbaa !3
  store ptr %7, ptr %4, align 8, !tbaa !3
  call void @llvm.lifetime.start.p0(i64 8, ptr %5) #8
  %8 = load ptr, ptr %4, align 8, !tbaa !3
  %9 = getelementptr inbounds nuw %struct.TLS1_PRF, ptr %8, i32 0, i32 0
  %10 = load ptr, ptr %9, align 8, !tbaa !7
  %11 = call ptr @kdf_tls1_prf_new(ptr noundef %10)
  store ptr %11, ptr %5, align 8, !tbaa !3
  %12 = load ptr, ptr %5, align 8, !tbaa !3
  %13 = icmp ne ptr %12, null
  br i1 %13, label %14, label %71

14:                                               ; preds = %1
  %15 = load ptr, ptr %4, align 8, !tbaa !3
  %16 = getelementptr inbounds nuw %struct.TLS1_PRF, ptr %15, i32 0, i32 1
  %17 = load ptr, ptr %16, align 8, !tbaa !12
  %18 = icmp ne ptr %17, null
  br i1 %18, label %19, label %28

19:                                               ; preds = %14
  %20 = load ptr, ptr %4, align 8, !tbaa !3
  %21 = getelementptr inbounds nuw %struct.TLS1_PRF, ptr %20, i32 0, i32 1
  %22 = load ptr, ptr %21, align 8, !tbaa !12
  %23 = call ptr @EVP_MAC_CTX_dup(ptr noundef %22)
  %24 = load ptr, ptr %5, align 8, !tbaa !3
  %25 = getelementptr inbounds nuw %struct.TLS1_PRF, ptr %24, i32 0, i32 1
  store ptr %23, ptr %25, align 8, !tbaa !12
  %26 = icmp eq ptr %23, null
  br i1 %26, label %27, label %28

27:                                               ; preds = %19
  br label %73

28:                                               ; preds = %19, %14
  %29 = load ptr, ptr %4, align 8, !tbaa !3
  %30 = getelementptr inbounds nuw %struct.TLS1_PRF, ptr %29, i32 0, i32 2
  %31 = load ptr, ptr %30, align 8, !tbaa !13
  %32 = icmp ne ptr %31, null
  br i1 %32, label %33, label %42

33:                                               ; preds = %28
  %34 = load ptr, ptr %4, align 8, !tbaa !3
  %35 = getelementptr inbounds nuw %struct.TLS1_PRF, ptr %34, i32 0, i32 2
  %36 = load ptr, ptr %35, align 8, !tbaa !13
  %37 = call ptr @EVP_MAC_CTX_dup(ptr noundef %36)
  %38 = load ptr, ptr %5, align 8, !tbaa !3
  %39 = getelementptr inbounds nuw %struct.TLS1_PRF, ptr %38, i32 0, i32 2
  store ptr %37, ptr %39, align 8, !tbaa !13
  %40 = icmp eq ptr %37, null
  br i1 %40, label %41, label %42

41:                                               ; preds = %33
  br label %73

42:                                               ; preds = %33, %28
  %43 = load ptr, ptr %4, align 8, !tbaa !3
  %44 = getelementptr inbounds nuw %struct.TLS1_PRF, ptr %43, i32 0, i32 3
  %45 = load ptr, ptr %44, align 8, !tbaa !14
  %46 = load ptr, ptr %4, align 8, !tbaa !3
  %47 = getelementptr inbounds nuw %struct.TLS1_PRF, ptr %46, i32 0, i32 4
  %48 = load i64, ptr %47, align 8, !tbaa !15
  %49 = load ptr, ptr %5, align 8, !tbaa !3
  %50 = getelementptr inbounds nuw %struct.TLS1_PRF, ptr %49, i32 0, i32 3
  %51 = load ptr, ptr %5, align 8, !tbaa !3
  %52 = getelementptr inbounds nuw %struct.TLS1_PRF, ptr %51, i32 0, i32 4
  %53 = call i32 @ossl_prov_memdup(ptr noundef %45, i64 noundef %48, ptr noundef %50, ptr noundef %52)
  %54 = icmp ne i32 %53, 0
  br i1 %54, label %56, label %55

55:                                               ; preds = %42
  br label %73

56:                                               ; preds = %42
  %57 = load ptr, ptr %4, align 8, !tbaa !3
  %58 = getelementptr inbounds nuw %struct.TLS1_PRF, ptr %57, i32 0, i32 5
  %59 = load ptr, ptr %58, align 8, !tbaa !16
  %60 = load ptr, ptr %4, align 8, !tbaa !3
  %61 = getelementptr inbounds nuw %struct.TLS1_PRF, ptr %60, i32 0, i32 6
  %62 = load i64, ptr %61, align 8, !tbaa !17
  %63 = load ptr, ptr %5, align 8, !tbaa !3
  %64 = getelementptr inbounds nuw %struct.TLS1_PRF, ptr %63, i32 0, i32 5
  %65 = load ptr, ptr %5, align 8, !tbaa !3
  %66 = getelementptr inbounds nuw %struct.TLS1_PRF, ptr %65, i32 0, i32 6
  %67 = call i32 @ossl_prov_memdup(ptr noundef %59, i64 noundef %62, ptr noundef %64, ptr noundef %66)
  %68 = icmp ne i32 %67, 0
  br i1 %68, label %70, label %69

69:                                               ; preds = %56
  br label %73

70:                                               ; preds = %56
  br label %71

71:                                               ; preds = %70, %1
  %72 = load ptr, ptr %5, align 8, !tbaa !3
  store ptr %72, ptr %2, align 8
  store i32 1, ptr %6, align 4
  br label %75

73:                                               ; preds = %69, %55, %41, %27
  %74 = load ptr, ptr %5, align 8, !tbaa !3
  call void @kdf_tls1_prf_free(ptr noundef %74)
  store ptr null, ptr %2, align 8
  store i32 1, ptr %6, align 4
  br label %75

75:                                               ; preds = %73, %71
  call void @llvm.lifetime.end.p0(i64 8, ptr %5) #8
  call void @llvm.lifetime.end.p0(i64 8, ptr %4) #8
  %76 = load ptr, ptr %2, align 8
  ret ptr %76
}