; Function Attrs: nounwind uwtable
define internal ptr @kdf_tls1_prf_dup(ptr noundef readonly captures(none) %0) #0 {
  %2 = load ptr, ptr %0, align 8, !tbaa !3
  %3 = tail call i32 @ossl_prov_is_running() #7
  %.not.i = icmp eq i32 %3, 0
  br i1 %.not.i, label %kdf_tls1_prf_new.exit.thread, label %4

4:                                                ; preds = %1
  %5 = tail call noalias ptr @CRYPTO_zalloc(i64 noundef 56, ptr noundef nonnull @.str, i32 noundef 120) #7
  %.not5.i = icmp eq ptr %5, null
  br i1 %.not5.i, label %kdf_tls1_prf_new.exit.thread, label %6

6:                                                ; preds = %4
  store ptr %2, ptr %5, align 8, !tbaa !3
  %7 = getelementptr inbounds nuw i8, ptr %0, i64 8
  %8 = load ptr, ptr %7, align 8, !tbaa !11
  %.not23 = icmp eq ptr %8, null
  br i1 %.not23, label %13, label %9

9:                                                ; preds = %6
  %10 = tail call ptr @EVP_MAC_CTX_dup(ptr noundef nonnull %8) #7
  %11 = getelementptr inbounds nuw i8, ptr %5, i64 8
  store ptr %10, ptr %11, align 8, !tbaa !11
  %12 = icmp eq ptr %10, null
  br i1 %12, label %kdf_tls1_prf_free.exit, label %13

13:                                               ; preds = %9, %6
  %14 = getelementptr inbounds nuw i8, ptr %0, i64 16
  %15 = load ptr, ptr %14, align 8, !tbaa !12
  %.not24 = icmp eq ptr %15, null
  br i1 %.not24, label %20, label %16

16:                                               ; preds = %13
  %17 = tail call ptr @EVP_MAC_CTX_dup(ptr noundef nonnull %15) #7
  %18 = getelementptr inbounds nuw i8, ptr %5, i64 16
  store ptr %17, ptr %18, align 8, !tbaa !12
  %19 = icmp eq ptr %17, null
  br i1 %19, label %kdf_tls1_prf_free.exit, label %20

20:                                               ; preds = %16, %13
  %21 = getelementptr inbounds nuw i8, ptr %0, i64 24
  %22 = load ptr, ptr %21, align 8, !tbaa !13
  %23 = getelementptr inbounds nuw i8, ptr %0, i64 32
  %24 = load i64, ptr %23, align 8, !tbaa !14
  %25 = getelementptr inbounds nuw i8, ptr %5, i64 24
  %26 = getelementptr inbounds nuw i8, ptr %5, i64 32
  %27 = tail call i32 @ossl_prov_memdup(ptr noundef %22, i64 noundef %24, ptr noundef nonnull %25, ptr noundef nonnull %26) #7
  %.not25 = icmp eq i32 %27, 0
  br i1 %.not25, label %kdf_tls1_prf_free.exit, label %28

28:                                               ; preds = %20
  %29 = getelementptr inbounds nuw i8, ptr %0, i64 40
  %30 = load ptr, ptr %29, align 8, !tbaa !15
  %31 = getelementptr inbounds nuw i8, ptr %0, i64 48
  %32 = load i64, ptr %31, align 8, !tbaa !16
  %33 = getelementptr inbounds nuw i8, ptr %5, i64 40
  %34 = getelementptr inbounds nuw i8, ptr %5, i64 48
  %35 = tail call i32 @ossl_prov_memdup(ptr noundef %30, i64 noundef %32, ptr noundef nonnull %33, ptr noundef nonnull %34) #7
  %.not26 = icmp eq i32 %35, 0
  br i1 %.not26, label %kdf_tls1_prf_free.exit, label %kdf_tls1_prf_new.exit.thread

kdf_tls1_prf_free.exit:                           ; preds = %28, %20, %16, %9
  %36 = load ptr, ptr %5, align 8, !tbaa !3
  %37 = getelementptr inbounds nuw i8, ptr %5, i64 8
  %38 = load ptr, ptr %37, align 8, !tbaa !11
  tail call void @EVP_MAC_CTX_free(ptr noundef %38) #7
  %39 = getelementptr inbounds nuw i8, ptr %5, i64 16
  %40 = load ptr, ptr %39, align 8, !tbaa !12
  tail call void @EVP_MAC_CTX_free(ptr noundef %40) #7
  %41 = getelementptr inbounds nuw i8, ptr %5, i64 24
  %42 = load ptr, ptr %41, align 8, !tbaa !13
  %43 = getelementptr inbounds nuw i8, ptr %5, i64 32
  %44 = load i64, ptr %43, align 8, !tbaa !14
  tail call void @CRYPTO_clear_free(ptr noundef %42, i64 noundef %44, ptr noundef nonnull @.str, i32 noundef 144) #7
  %45 = getelementptr inbounds nuw i8, ptr %5, i64 40
  %46 = load ptr, ptr %45, align 8, !tbaa !15
  %47 = getelementptr inbounds nuw i8, ptr %5, i64 48
  %48 = load i64, ptr %47, align 8, !tbaa !16
  tail call void @CRYPTO_clear_free(ptr noundef %46, i64 noundef %48, ptr noundef nonnull @.str, i32 noundef 145) #7
  tail call void @llvm.memset.p0.i64(ptr noundef nonnull align 8 dereferenceable(56) %37, i8 0, i64 48, i1 false)
  store ptr %36, ptr %5, align 8, !tbaa !3
  tail call void @CRYPTO_free(ptr noundef nonnull %5, ptr noundef nonnull @.str, i32 noundef 133) #7
  br label %kdf_tls1_prf_new.exit.thread

kdf_tls1_prf_new.exit.thread:                     ; preds = %4, %1, %28, %kdf_tls1_prf_free.exit
  %.0 = phi ptr [ null, %kdf_tls1_prf_free.exit ], [ %5, %28 ], [ null, %1 ], [ null, %4 ]
  ret ptr %.0
}